; ModuleID = '37/1537.c'
source_filename = "37/1537.c"
target datalayout = "e-m:e-p270:32:32-p271:32:32-p272:64:64-i64:64-f80:128-n8:16:32:64-S128"
target triple = "x86_64-pc-linux-gnu"

@.str = private unnamed_addr constant [4 x i8] c"%d\0A\00", align 1
@.str.1 = private unnamed_addr constant [4 x i8] c"%c\0A\00", align 1
@.str.2 = private unnamed_addr constant [4 x i8] c"no\0A\00", align 1
@.str.3 = private unnamed_addr constant [3 x i8] c"%d\00", align 1

; Function Attrs: noinline nounwind uwtable
define dso_local i32 @main() #0 {
  %1 = alloca i32, align 4
  %2 = alloca i32, align 4
  %3 = alloca i32, align 4
  %4 = alloca [1000 x [1000 x i8]], align 16
  %5 = alloca i32, align 4
  %6 = alloca i32, align 4
  %7 = alloca i32, align 4
  %8 = alloca i32, align 4
  %9 = alloca i32, align 4
  store i32 0, i32* %1, align 4
  %10 = call i32 (i8*, ...) @__isoc99_scanf(i8* getelementptr inbounds ([4 x i8], [4 x i8]* @.str, i64 0, i64 0), i32* %2)
  store i32 0, i32* %5, align 4
  br label %11

11:                                               ; preds = %21, %0
  %12 = load i32, i32* %5, align 4
  %13 = load i32, i32* %2, align 4
  %14 = icmp slt i32 %12, %13
  br i1 %14, label %15, label %24

15:                                               ; preds = %11
  %16 = load i32, i32* %5, align 4
  %17 = sext i32 %16 to i64
  %18 = getelementptr inbounds [1000 x [1000 x i8]], [1000 x [1000 x i8]]* %4, i64 0, i64 %17
  %19 = getelementptr inbounds [1000 x i8], [1000 x i8]* %18, i64 0, i64 0
  %20 = call i32 (i8*, ...) bitcast (i32 (...)* @gets to i32 (i8*, ...)*)(i8* %19)
  br label %21

21:                                               ; preds = %15
  %22 = load i32, i32* %5, align 4
  %23 = add nsw i32 %22, 1
  store i32 %23, i32* %5, align 4
  br label %11

24:                                               ; preds = %11
  store i32 0, i32* %6, align 4
  br label %25

25:                                               ; preds = %95, %24
  %26 = load i32, i32* %6, align 4
  %27 = load i32, i32* %2, align 4
  %28 = icmp slt i32 %26, %27
  br i1 %28, label %29, label %98

29:                                               ; preds = %25
  %30 = load i32, i32* %6, align 4
  %31 = sext i32 %30 to i64
  %32 = getelementptr inbounds [1000 x [1000 x i8]], [1000 x [1000 x i8]]* %4, i64 0, i64 %31
  %33 = getelementptr inbounds [1000 x i8], [1000 x i8]* %32, i64 0, i64 0
  %34 = call i64 @strlen(i8* %33) #3
  %35 = trunc i64 %34 to i32
  store i32 %35, i32* %7, align 4
  store i32 0, i32* %8, align 4
  br label %36

36:                                               ; preds = %91, %29
  %37 = load i32, i32* %8, align 4
  %38 = load i32, i32* %7, align 4
  %39 = icmp slt i32 %37, %38
  br i1 %39, label %40, label %94

40:                                               ; preds = %36
  store i32 0, i32* %3, align 4
  store i32 0, i32* %9, align 4
  br label %41

41:                                               ; preds = %67, %40
  %42 = load i32, i32* %9, align 4
  %43 = load i32, i32* %7, align 4
  %44 = icmp slt i32 %42, %43
  br i1 %44, label %45, label %70

45:                                               ; preds = %41
  %46 = load i32, i32* %6, align 4
  %47 = sext i32 %46 to i64
  %48 = getelementptr inbounds [1000 x [1000 x i8]], [1000 x [1000 x i8]]* %4, i64 0, i64 %47
  %49 = load i32, i32* %8, align 4
  %50 = sext i32 %49 to i64
  %51 = getelementptr inbounds [1000 x i8], [1000 x i8]* %48, i64 0, i64 %50
  %52 = load i8, i8* %51, align 1
  %53 = sext i8 %52 to i32
  %54 = load i32, i32* %6, align 4
  %55 = sext i32 %54 to i64
  %56 = getelementptr inbounds [1000 x [1000 x i8]], [1000 x [1000 x i8]]* %4, i64 0, i64 %55
  %57 = load i32, i32* %9, align 4
  %58 = sext i32 %57 to i64
  %59 = getelementptr inbounds [1000 x i8], [1000 x i8]* %56, i64 0, i64 %58
  %60 = load i8, i8* %59, align 1
  %61 = sext i8 %60 to i32
  %62 = icmp eq i32 %53, %61
  br i1 %62, label %63, label %66

63:                                               ; preds = %45
  %64 = load i32, i32* %3, align 4
  %65 = add nsw i32 %64, 1
  store i32 %65, i32* %3, align 4
  br label %66

66:                                               ; preds = %63, %45
  br label %67

67:                                               ; preds = %66
  %68 = load i32, i32* %9, align 4
  %69 = add nsw i32 %68, 1
  store i32 %69, i32* %9, align 4
  br label %41

70:                                               ; preds = %41
  %71 = load i32, i32* %3, align 4
  %72 = icmp eq i32 %71, 1
  br i1 %72, label %73, label %83

73:                                               ; preds = %70
  %74 = load i32, i32* %6, align 4
  %75 = sext i32 %74 to i64
  %76 = getelementptr inbounds [1000 x [1000 x i8]], [1000 x [1000 x i8]]* %4, i64 0, i64 %75
  %77 = load i32, i32* %8, align 4
  %78 = sext i32 %77 to i64
  %79 = getelementptr inbounds [1000 x i8], [1000 x i8]* %76, i64 0, i64 %78
  %80 = load i8, i8* %79, align 1
  %81 = sext i8 %80 to i32
  %82 = call i32 (i8*, ...) @printf(i8* getelementptr inbounds ([4 x i8], [4 x i8]* @.str.1, i64 0, i64 0), i32 %81)
  br label %94

83:                                               ; preds = %70
  %84 = load i32, i32* %8, align 4
  %85 = load i32, i32* %7, align 4
  %86 = sub nsw i32 %85, 1
  %87 = icmp eq i32 %84, %86
  br i1 %87, label %88, label %90

88:                                               ; preds = %83
  %89 = call i32 (i8*, ...) @printf(i8* getelementptr inbounds ([4 x i8], [4 x i8]* @.str.2, i64 0, i64 0))
  br label %90

90:                                               ; preds = %88, %83
  br label %91

91:                                               ; preds = %90
  %92 = load i32, i32* %8, align 4
  %93 = add nsw i32 %92, 1
  store i32 %93, i32* %8, align 4
  br label %36

94:                                               ; preds = %73, %36
  br label %95

95:                                               ; preds = %94
  %96 = load i32, i32* %6, align 4
  %97 = add nsw i32 %96, 1
  store i32 %97, i32* %6, align 4
  br label %25

98:                                               ; preds = %25
  %99 = call i32 (i8*, ...) @__isoc99_scanf(i8* getelementptr inbounds ([3 x i8], [3 x i8]* @.str.3, i64 0, i64 0), i32* %2)
  ret i32 0
}

declare dso_local i32 @__isoc99_scanf(i8*, ...) #1

declare dso_local i32 @gets(...) #1

; Function Attrs: nounwind readonly
declare dso_local i64 @strlen(i8*) #2

declare dso_local i32 @printf(i8*, ...) #1


!llvm.module.flags = !{!0}
!llvm.ident = !{!1}

!0 = !{i32 1, !"wchar_size", i32 4}
!1 = !{!"clang version 10.0.0-4ubuntu1 "}
