; ModuleID = 'source-C-CXX/36/1537.c'
source_filename = "source-C-CXX/36/1537.c"
target datalayout = "e-m:e-p270:32:32-p271:32:32-p272:64:64-i64:64-f80:128-n8:16:32:64-S128"
target triple = "x86_64-pc-linux-gnu"

@.str = private unnamed_addr constant [4 x i8] c"%d\0A\00", align 1
@.str.1 = private unnamed_addr constant [4 x i8] c"%c\0A\00", align 1
@.str.3 = private unnamed_addr constant [3 x i8] c"%d\00", align 1
@str = private unnamed_addr constant [3 x i8] c"no\00", align 1

; Function Attrs: nounwind sspstrong uwtable
define dso_local i32 @main() local_unnamed_addr #0 {
  %1 = alloca i32, align 4
  %2 = alloca [1000 x [1000 x i8]], align 16
  %3 = bitcast i32* %1 to i8*
  call void @llvm.lifetime.start.p0i8(i64 4, i8* nonnull %3) #7
  %4 = call i32 (i8*, ...) @__isoc99_scanf(i8* getelementptr inbounds ([4 x i8], [4 x i8]* @.str, i64 0, i64 0), i32* nonnull %1)
  %5 = getelementptr inbounds [1000 x [1000 x i8]], [1000 x [1000 x i8]]* %2, i64 0, i64 0, i64 0
  call void @llvm.lifetime.start.p0i8(i64 1000000, i8* nonnull %5) #7
  %6 = load i32, i32* %1, align 4, !tbaa !5
  %7 = icmp sgt i32 %6, 0
  br i1 %7, label %10, label %18

8:                                                ; preds = %10
  %9 = icmp sgt i32 %15, 0
  br i1 %9, label %20, label %18

10:                                               ; preds = %0, %10
  %11 = phi i64 [ %14, %10 ], [ 0, %0 ]
  %12 = getelementptr inbounds [1000 x [1000 x i8]], [1000 x [1000 x i8]]* %2, i64 0, i64 %11, i64 0
  %13 = call i32 (i8*, ...) bitcast (i32 (...)* @gets to i32 (i8*, ...)*)(i8* nonnull %12) #7
  %14 = add nuw nsw i64 %11, 1
  %15 = load i32, i32* %1, align 4, !tbaa !5
  %16 = sext i32 %15 to i64
  %17 = icmp slt i64 %14, %16
  br i1 %17, label %10, label %8, !llvm.loop !9

18:                                               ; preds = %97, %0, %8
  %19 = call i32 (i8*, ...) @__isoc99_scanf(i8* getelementptr inbounds ([3 x i8], [3 x i8]* @.str.3, i64 0, i64 0), i32* nonnull %1)
  call void @llvm.lifetime.end.p0i8(i64 1000000, i8* nonnull %5) #7
  call void @llvm.lifetime.end.p0i8(i64 4, i8* nonnull %3) #7
  ret i32 0

20:                                               ; preds = %8, %97
  %21 = phi i64 [ %98, %97 ], [ 0, %8 ]
  %22 = getelementptr inbounds [1000 x [1000 x i8]], [1000 x [1000 x i8]]* %2, i64 0, i64 %21, i64 0
  %23 = call i64 @strlen(i8* noundef nonnull %22) #8
  %24 = trunc i64 %23 to i32
  %25 = icmp sgt i32 %24, 0
  br i1 %25, label %26, label %97

26:                                               ; preds = %20
  %27 = add i64 %23, 4294967295
  %28 = shl i64 %23, 32
  %29 = ashr exact i64 %28, 32
  %30 = and i64 %27, 4294967295
  %31 = and i64 %23, 4294967295
  %32 = shl i64 %23, 32
  %33 = ashr exact i64 %32, 32
  %34 = icmp ult i64 %33, 8
  %35 = and i64 %23, 7
  %36 = sub nsw i64 %33, %35
  %37 = icmp eq i64 %35, 0
  br label %38

38:                                               ; preds = %26, %75
  %39 = phi i64 [ 0, %26 ], [ %76, %75 ]
  %40 = getelementptr inbounds [1000 x [1000 x i8]], [1000 x [1000 x i8]]* %2, i64 0, i64 %21, i64 %39
  %41 = load i8, i8* %40, align 1, !tbaa !11
  br i1 %34, label %68, label %42

42:                                               ; preds = %38
  %43 = insertelement <4 x i8> poison, i8 %41, i32 0
  %44 = shufflevector <4 x i8> %43, <4 x i8> poison, <4 x i32> zeroinitializer
  %45 = insertelement <4 x i8> poison, i8 %41, i32 0
  %46 = shufflevector <4 x i8> %45, <4 x i8> poison, <4 x i32> zeroinitializer
  br label %47

47:                                               ; preds = %47, %42
  %48 = phi i64 [ 0, %42 ], [ %63, %47 ]
  %49 = phi <4 x i32> [ zeroinitializer, %42 ], [ %61, %47 ]
  %50 = phi <4 x i32> [ zeroinitializer, %42 ], [ %62, %47 ]
  %51 = getelementptr inbounds [1000 x [1000 x i8]], [1000 x [1000 x i8]]* %2, i64 0, i64 %21, i64 %48
  %52 = bitcast i8* %51 to <4 x i8>*
  %53 = load <4 x i8>, <4 x i8>* %52, align 8, !tbaa !11
  %54 = getelementptr inbounds i8, i8* %51, i64 4
  %55 = bitcast i8* %54 to <4 x i8>*
  %56 = load <4 x i8>, <4 x i8>* %55, align 4, !tbaa !11
  %57 = icmp eq <4 x i8> %44, %53
  %58 = icmp eq <4 x i8> %46, %56
  %59 = zext <4 x i1> %57 to <4 x i32>
  %60 = zext <4 x i1> %58 to <4 x i32>
  %61 = add <4 x i32> %49, %59
  %62 = add <4 x i32> %50, %60
  %63 = add nuw i64 %48, 8
  %64 = icmp eq i64 %63, %36
  br i1 %64, label %65, label %47, !llvm.loop !12

65:                                               ; preds = %47
  %66 = add <4 x i32> %62, %61
  %67 = call i32 @llvm.vector.reduce.add.v4i32(<4 x i32> %66)
  br i1 %37, label %88, label %68

68:                                               ; preds = %38, %65
  %69 = phi i64 [ 0, %38 ], [ %36, %65 ]
  %70 = phi i32 [ 0, %38 ], [ %67, %65 ]
  br label %78

71:                                               ; preds = %88
  %72 = icmp eq i64 %39, %30
  br i1 %72, label %73, label %75

73:                                               ; preds = %71
  %74 = call i32 @puts(i8* nonnull dereferenceable(1) getelementptr inbounds ([3 x i8], [3 x i8]* @str, i64 0, i64 0))
  br label %75

75:                                               ; preds = %73, %71
  %76 = add nuw nsw i64 %39, 1
  %77 = icmp eq i64 %76, %31
  br i1 %77, label %97, label %38, !llvm.loop !14

78:                                               ; preds = %68, %78
  %79 = phi i64 [ %86, %78 ], [ %69, %68 ]
  %80 = phi i32 [ %85, %78 ], [ %70, %68 ]
  %81 = getelementptr inbounds [1000 x [1000 x i8]], [1000 x [1000 x i8]]* %2, i64 0, i64 %21, i64 %79
  %82 = load i8, i8* %81, align 1, !tbaa !11
  %83 = icmp eq i8 %41, %82
  %84 = zext i1 %83 to i32
  %85 = add nuw nsw i32 %80, %84
  %86 = add nuw nsw i64 %79, 1
  %87 = icmp eq i64 %86, %29
  br i1 %87, label %88, label %78, !llvm.loop !15

88:                                               ; preds = %78, %65
  %89 = phi i32 [ %67, %65 ], [ %85, %78 ]
  %90 = icmp eq i32 %89, 1
  br i1 %90, label %91, label %71

91:                                               ; preds = %88
  %92 = and i64 %39, 4294967295
  %93 = getelementptr inbounds [1000 x [1000 x i8]], [1000 x [1000 x i8]]* %2, i64 0, i64 %21, i64 %92
  %94 = load i8, i8* %93, align 1, !tbaa !11
  %95 = sext i8 %94 to i32
  %96 = call i32 (i8*, ...) @printf(i8* nonnull dereferenceable(1) getelementptr inbounds ([4 x i8], [4 x i8]* @.str.1, i64 0, i64 0), i32 %95)
  br label %97

97:                                               ; preds = %75, %20, %91
  %98 = add nuw nsw i64 %21, 1
  %99 = load i32, i32* %1, align 4, !tbaa !5
  %100 = sext i32 %99 to i64
  %101 = icmp slt i64 %98, %100
  br i1 %101, label %20, label %18, !llvm.loop !17
}

; Function Attrs: argmemonly mustprogress nofree nosync nounwind willreturn
declare void @llvm.lifetime.start.p0i8(i64 immarg, i8* nocapture) #1

; Function Attrs: nofree nounwind
declare noundef i32 @__isoc99_scanf(i8* nocapture noundef readonly, ...) local_unnamed_addr #2

declare i32 @gets(...) local_unnamed_addr #3

; Function Attrs: argmemonly mustprogress nofree nosync nounwind willreturn
declare void @llvm.lifetime.end.p0i8(i64 immarg, i8* nocapture) #1

; Function Attrs: argmemonly mustprogress nofree nounwind readonly willreturn
declare i64 @strlen(i8* nocapture) local_unnamed_addr #4

; Function Attrs: nofree nounwind
declare noundef i32 @printf(i8* nocapture noundef readonly, ...) local_unnamed_addr #2

; Function Attrs: nofree nounwind
declare noundef i32 @puts(i8* nocapture noundef readonly) local_unnamed_addr #5

; Function Attrs: nofree nosync nounwind readnone willreturn
declare i32 @llvm.vector.reduce.add.v4i32(<4 x i32>) #6


!llvm.module.flags = !{!0, !1, !2, !3}
!llvm.ident = !{!4}

!0 = !{i32 1, !"wchar_size", i32 4}
!1 = !{i32 7, !"PIC Level", i32 2}
!2 = !{i32 7, !"PIE Level", i32 2}
!3 = !{i32 7, !"uwtable", i32 1}
!4 = !{!"clang version 13.0.0"}
!5 = !{!6, !6, i64 0}
!6 = !{!"int", !7, i64 0}
!7 = !{!"omnipotent char", !8, i64 0}
!8 = !{!"Simple C/C++ TBAA"}
!9 = distinct !{!9, !10}
!10 = !{!"llvm.loop.mustprogress"}
!11 = !{!7, !7, i64 0}
!12 = distinct !{!12, !10, !13}
!13 = !{!"llvm.loop.isvectorized", i32 1}
!14 = distinct !{!14, !10}
!15 = distinct !{!15, !10, !16, !13}
!16 = !{!"llvm.loop.unroll.runtime.disable"}
!17 = distinct !{!17, !10}
